; Function Attrs: mustprogress nofree norecurse nosync nounwind willreturn memory(argmem: read) uwtable
define hidden noundef i64 @_ZNK11TypeInteger15get_con_as_longE9BasicType(ptr nocapture noundef nonnull readonly align 8 dereferenceable(22) %0, i8 noundef zeroext %1) local_unnamed_addr #6 align 2 {
  %3 = icmp eq i8 %1, 10
  %4 = getelementptr inbounds i8, ptr %0, i64 24
  br i1 %3, label %5, label %8

5:                                                ; preds = %2
  %6 = load i32, ptr %4, align 8
  %7 = sext i32 %6 to i64
  br label %10

8:                                                ; preds = %2
  %9 = load i64, ptr %4, align 8
  br label %10

10:                                               ; preds = %8, %5
  %.0 = phi i64 [ %7, %5 ], [ %9, %8 ]
  ret i64 %.0
}